(dp1
S'output'
p2
S"<type 'exceptions.IOError'> [Errno 2] No such file or directory: '/home/rogoberto/web2py/applications/mmn/languages/pt-br'"
p3
sS'layer'
p4
S'/home/rogoberto/web2py/applications/admin/controllers/default.py'
p5
sS'code'
p6
S'<code object <module> at 0x7effc05596b0, file "/home/rogoberto/web2py/applications/admin/controllers/default.py", line 3>'
p7
sS'snapshot'
p8
(dp9
S'exception'
p10
(dp11
S'__getslice__'
p12
S"<method-wrapper '__getslice__' of exceptions.IOError object>"
p13
sS'__str__'
p14
S"<method-wrapper '__str__' of exceptions.IOError object>"
p15
sS'__reduce__'
p16
S'<built-in method __reduce__ of exceptions.IOError object>'
p17
sS'__dict__'
p18
S'{}'
p19
sS'__sizeof__'
p20
S'<built-in method __sizeof__ of exceptions.IOError object>'
p21
sS'message'
p22
S"''"
p23
sS'__init__'
p24
S"<method-wrapper '__init__' of exceptions.IOError object>"
p25
sS'__setattr__'
p26
S"<method-wrapper '__setattr__' of exceptions.IOError object>"
p27
sS'__reduce_ex__'
p28
S'<built-in method __reduce_ex__ of exceptions.IOError object>'
p29
sS'__new__'
p30
S'<built-in method __new__ of type object>'
p31
sS'errno'
p32
S'2'
sS'__format__'
p33
S'<built-in method __format__ of exceptions.IOError object>'
p34
sS'__class__'
p35
S"<type 'exceptions.IOError'>"
p36
sS'filename'
p37
S"'/home/rogoberto/web2py/applications/mmn/languages/pt-br'"
p38
sS'__doc__'
p39
S"'I/O operation failed.'"
p40
sS'__getitem__'
p41
S"<method-wrapper '__getitem__' of exceptions.IOError object>"
p42
sS'__setstate__'
p43
S'<built-in method __setstate__ of exceptions.IOError object>'
p44
sS'__getattribute__'
p45
S"<method-wrapper '__getattribute__' of exceptions.IOError object>"
p46
sS'args'
p47
S"(2, 'No such file or directory')"
p48
sS'__subclasshook__'
p49
S'<built-in method __subclasshook__ of type object>'
p50
sS'__unicode__'
p51
S'<built-in method __unicode__ of exceptions.IOError object>'
p52
sS'strerror'
p53
S"'No such file or directory'"
p54
sS'__delattr__'
p55
S"<method-wrapper '__delattr__' of exceptions.IOError object>"
p56
sS'__repr__'
p57
S"<method-wrapper '__repr__' of exceptions.IOError object>"
p58
sS'__hash__'
p59
S"<method-wrapper '__hash__' of exceptions.IOError object>"
p60
ssS'evalue'
p61
S"[Errno 2] No such file or directory: '/home/rogoberto/web2py/applications/mmn/languages/pt-br'"
p62
sS'request'
p63
cgluon.html
XML_unpickle
p64
(S's\x06w\x00\x00<div><table><tr><td style="font-weight:bold;vertical-align:top;">ajax</td><td style="vertical-align:top;">:</td><td><div>False</div></td></tr><tr><td style="font-weight:bold;vertical-align:top;">application</td><td style="vertical-align:top;">:</td><td><div>admin</div></td></tr><tr><td style="font-weight:bold;vertical-align:top;">args</td><td style="vertical-align:top;">:</td><td><div><table><tr><td><div>mmn</div></td></tr><tr><td><div>languages</div></td></tr><tr><td><div>pt-br</div></td></tr></table></div></td></tr><tr><td style="font-weight:bold;vertical-align:top;">cid</td><td style="vertical-align:top;">:</td><td><div>None</div></td></tr><tr><td style="font-weight:bold;vertical-align:top;">client</td><td style="vertical-align:top;">:</td><td><div>187.19.189.45</div></td></tr><tr><td style="font-weight:bold;vertical-align:top;">controller</td><td style="vertical-align:top;">:</td><td><div>default</div></td></tr><tr><td style="font-weight:bold;vertical-align:top;">cookies</td><td style="vertical-align:top;">:</td><td><div><table><tr><td style="font-weight:bold;vertical-align:top;">session_id_admin</td><td style="vertical-align:top;">:</td><td><div>187.19.189.45-6a6a4acd-0285-4632-9462-b689502d69a6<table><tr><td style="font-weight:bold;vertical-align:top;">comment</td><td style="vertical-align:top;">:</td><td><div></div></td></tr><tr><td style="font-weight:bold;vertical-align:top;">domain</td><td style="vertical-align:top;">:</td><td><div></div></td></tr><tr><td style="font-weight:bold;vertical-align:top;">expires</td><td style="vertical-align:top;">:</td><td><div></div></td></tr><tr><td style="font-weight:bold;vertical-align:top;">httponly</td><td style="vertical-align:top;">:</td><td><div></div></td></tr><tr><td style="font-weight:bold;vertical-align:top;">max-age</td><td style="vertical-align:top;">:</td><td><div></div></td></tr><tr><td style="font-weight:bold;vertical-align:top;">path</td><td style="vertical-align:top;">:</td><td><div></div></td></tr><tr><td style="font-weight:bold;vertical-align:top;">secure</td><td style="vertical-align:top;">:</td><td><div></div></td></tr><tr><td style="font-weight:bold;vertical-align:top;">version</td><td style="vertical-align:top;">:</td><td><div></div></td></tr></table></div></td></tr><tr><td style="font-weight:bold;vertical-align:top;">session_id_exemplo</td><td style="vertical-align:top;">:</td><td><div>187.19.189.45-48145116-6584-42ba-8ba0-4a436f631a29<table><tr><td style="font-weight:bold;vertical-align:top;">comment</td><td style="vertical-align:top;">:</td><td><div></div></td></tr><tr><td style="font-weight:bold;vertical-align:top;">domain</td><td style="vertical-align:top;">:</td><td><div></div></td></tr><tr><td style="font-weight:bold;vertical-align:top;">expires</td><td style="vertical-align:top;">:</td><td><div></div></td></tr><tr><td style="font-weight:bold;vertical-align:top;">httponly</td><td style="vertical-align:top;">:</td><td><div></div></td></tr><tr><td style="font-weight:bold;vertical-align:top;">max-age</td><td style="vertical-align:top;">:</td><td><div></div></td></tr><tr><td style="font-weight:bold;vertical-align:top;">path</td><td style="vertical-align:top;">:</td><td><div></div></td></tr><tr><td style="font-weight:bold;vertical-align:top;">secure</td><td style="vertical-align:top;">:</td><td><div></div></td></tr><tr><td style="font-weight:bold;vertical-align:top;">version</td><td style="vertical-align:top;">:</td><td><div></div></td></tr></table></div></td></tr><tr><td style="font-weight:bold;vertical-align:top;">session_id_mmn</td><td style="vertical-align:top;">:</td><td><div>187.19.189.45-5604ad06-08b2-4d45-9ba7-cd991197ed69<table><tr><td style="font-weight:bold;vertical-align:top;">comment</td><td style="vertical-align:top;">:</td><td><div></div></td></tr><tr><td style="font-weight:bold;vertical-align:top;">domain</td><td style="vertical-align:top;">:</td><td><div></div></td></tr><tr><td style="font-weight:bold;vertical-align:top;">expires</td><td style="vertical-align:top;">:</td><td><div></div></td></tr><tr><td style="font-weight:bold;vertical-align:top;">httponly</td><td style="vertical-align:top;">:</td><td><div></div></td></tr><tr><td style="font-weight:bold;vertical-align:top;">max-age</td><td style="vertical-align:top;">:</td><td><div></div></td></tr><tr><td style="font-weight:bold;vertical-align:top;">path</td><td style="vertical-align:top;">:</td><td><div></div></td></tr><tr><td style="font-weight:bold;vertical-align:top;">secure</td><td style="vertical-align:top;">:</td><td><div></div></td></tr><tr><td style="font-weight:bold;vertical-align:top;">version</td><td style="vertical-align:top;">:</td><td><div></div></td></tr></table></div></td></tr><tr><td style="font-weight:bold;vertical-align:top;">session_id_sist01</td><td style="vertical-align:top;">:</td><td><div>177.25.156.85-1a57a1e5-f041-4dfc-8ef4-4e31289e8b87<table><tr><td style="font-weight:bold;vertical-align:top;">comment</td><td style="vertical-align:top;">:</td><td><div></div></td></tr><tr><td style="font-weight:bold;vertical-align:top;">domain</td><td style="vertical-align:top;">:</td><td><div></div></td></tr><tr><td style="font-weight:bold;vertical-align:top;">expires</td><td style="vertical-align:top;">:</td><td><div></div></td></tr><tr><td style="font-weight:bold;vertical-align:top;">httponly</td><td style="vertical-align:top;">:</td><td><div></div></td></tr><tr><td style="font-weight:bold;vertical-align:top;">max-age</td><td style="vertical-align:top;">:</td><td><div></div></td></tr><tr><td style="font-weight:bold;vertical-align:top;">path</td><td style="vertical-align:top;">:</td><td><div></div></td></tr><tr><td style="font-weight:bold;vertical-align:top;">secure</td><td style="vertical-align:top;">:</td><td><div></div></td></tr><tr><td style="font-weight:bold;vertical-align:top;">version</td><td style="vertical-align:top;">:</td><td><div></div></td></tr></table></div></td></tr><tr><td style="font-weight:bold;vertical-align:top;">session_id_sist02</td><td style="vertical-align:top;">:</td><td><div>187.19.189.45-789c2852-8005-4113-bfbd-f13647951705<table><tr><td style="font-weight:bold;vertical-align:top;">comment</td><td style="vertical-align:top;">:</td><td><div></div></td></tr><tr><td style="font-weight:bold;vertical-align:top;">domain</td><td style="vertical-align:top;">:</td><td><div></div></td></tr><tr><td style="font-weight:bold;vertical-align:top;">expires</td><td style="vertical-align:top;">:</td><td><div></div></td></tr><tr><td style="font-weight:bold;vertical-align:top;">httponly</td><td style="vertical-align:top;">:</td><td><div></div></td></tr><tr><td style="font-weight:bold;vertical-align:top;">max-age</td><td style="vertical-align:top;">:</td><td><div></div></td></tr><tr><td style="font-weight:bold;vertical-align:top;">path</td><td style="vertical-align:top;">:</td><td><div></div></td></tr><tr><td style="font-weight:bold;vertical-align:top;">secure</td><td style="vertical-align:top;">:</td><td><div></div></td></tr><tr><td style="font-weight:bold;vertical-align:top;">version</td><td style="vertical-align:top;">:</td><td><div></div></td></tr></table></div></td></tr><tr><td style="font-weight:bold;vertical-align:top;">session_id_sistema</td><td style="vertical-align:top;">:</td><td><div>187.19.189.45-6bcf7ff3-2ca0-4bb8-8342-06446b7679d6<table><tr><td style="font-weight:bold;vertical-align:top;">comment</td><td style="vertical-align:top;">:</td><td><div></div></td></tr><tr><td style="font-weight:bold;vertical-align:top;">domain</td><td style="vertical-align:top;">:</td><td><div></div></td></tr><tr><td style="font-weight:bold;vertical-align:top;">expires</td><td style="vertical-align:top;">:</td><td><div></div></td></tr><tr><td style="font-weight:bold;vertical-align:top;">httponly</td><td style="vertical-align:top;">:</td><td><div></div></td></tr><tr><td style="font-weight:bold;vertical-align:top;">max-age</td><td style="vertical-align:top;">:</td><td><div></div></td></tr><tr><td style="font-weight:bold;vertical-align:top;">path</td><td style="vertical-align:top;">:</td><td><div></div></td></tr><tr><td style="font-weight:bold;vertical-align:top;">secure</td><td style="vertical-align:top;">:</td><td><div></div></td></tr><tr><td style="font-weight:bold;vertical-align:top;">version</td><td style="vertical-align:top;">:</td><td><div></div></td></tr></table></div></td></tr><tr><td style="font-weight:bold;vertical-align:top;">session_id_welcome</td><td style="vertical-align:top;">:</td><td><div>187.19.189.45-b79001c6-c213-452f-af49-cf0b4fc66b27<table><tr><td style="font-weight:bold;vertical-align:top;">comment</td><td style="vertical-align:top;">:</td><td><div></div></td></tr><tr><td style="font-weight:bold;vertical-align:top;">domain</td><td style="vertical-align:top;">:</td><td><div></div></td></tr><tr><td style="font-weight:bold;vertical-align:top;">expires</td><td style="vertical-align:top;">:</td><td><div></div></td></tr><tr><td style="font-weight:bold;vertical-align:top;">httponly</td><td style="vertical-align:top;">:</td><td><div></div></td></tr><tr><td style="font-weight:bold;vertical-align:top;">max-age</td><td style="vertical-align:top;">:</td><td><div></div></td></tr><tr><td style="font-weight:bold;vertical-align:top;">path</td><td style="vertical-align:top;">:</td><td><div></div></td></tr><tr><td style="font-weight:bold;vertical-align:top;">secure</td><td style="vertical-align:top;">:</td><td><div></div></td></tr><tr><td style="font-weight:bold;vertical-align:top;">version</td><td style="vertical-align:top;">:</td><td><div></div></td></tr></table></div></td></tr></table></div></td></tr><tr><td style="font-weight:bold;vertical-align:top;">env</td><td style="vertical-align:top;">:</td><td><div><table><tr><td style="font-weight:bold;vertical-align:top;">CONTENT_LENGTH</td><td style="vertical-align:top;">:</td><td><div></div></td></tr><tr><td style="font-weight:bold;vertical-align:top;">CONTENT_TYPE</td><td style="vertical-align:top;">:</td><td><div></div></td></tr><tr><td style="font-weight:bold;vertical-align:top;">DOCUMENT_ROOT</td><td style="vertical-align:top;">:</td><td><div>/usr/local/openresty/nginx/html</div></td></tr><tr><td style="font-weight:bold;vertical-align:top;">HTTPS</td><td style="vertical-align:top;">:</td><td><div>on</div></td></tr><tr><td style="font-weight:bold;vertical-align:top;">HTTP_ACCEPT</td><td style="vertical-align:top;">:</td><td><div>text/html,application/xhtml+xml,application/xml;q=0.9,image/webp,image/apng,*/*;q=0.8,application/signed-exchange;v=b3</div></td></tr><tr><td style="font-weight:bold;vertical-align:top;">HTTP_ACCEPT_ENCODING</td><td style="vertical-align:top;">:</td><td><div>gzip, deflate</div></td></tr><tr><td style="font-weight:bold;vertical-align:top;">HTTP_ACCEPT_LANGUAGE</td><td style="vertical-align:top;">:</td><td><div>pt-BR,pt;q=0.9,en-US;q=0.8,en;q=0.7</div></td></tr><tr><td style="font-weight:bold;vertical-align:top;">HTTP_CONNECTION</td><td style="vertical-align:top;">:</td><td><div>close</div></td></tr><tr><td style="font-weight:bold;vertical-align:top;">HTTP_COOKIE</td><td style="vertical-align:top;">:</td><td><div>session_id_sistema=187.19.189.45-6bcf7ff3-2ca0-4bb8-8342-06446b7679d6; _ga=GA1.2.2003628967.1570258136; session_id_exemplo=187.19.189.45-48145116-6584-42ba-8ba0-4a436f631a29; session_id_sist02=187.19.189.45-789c2852-8005-4113-bfbd-f13647951705; session_id_sist01=177.25.156.85-1a57a1e5-f041-4dfc-8ef4-4e31289e8b87; session_id_admin=187.19.189.45-6a6a4acd-0285-4632-9462-b689502d69a6; session_id_mmn=187.19.189.45-5604ad06-08b2-4d45-9ba7-cd991197ed69; session_id_welcome=187.19.189.45-b79001c6-c213-452f-af49-cf0b4fc66b27</div></td></tr><tr><td style="font-weight:bold;vertical-align:top;">HTTP_HOST</td><td style="vertical-align:top;">:</td><td><div>rogoberto.pythonanywhere.com</div></td></tr><tr><td style="font-weight:bold;vertical-align:top;">HTTP_REFERER</td><td style="vertical-align:top;">:</td><td><div>https://rogoberto.pythonanywhere.com/admin/default/design/mmn</div></td></tr><tr><td style="font-weight:bold;vertical-align:top;">HTTP_SEC_FETCH_MODE</td><td style="vertical-align:top;">:</td><td><div>navigate</div></td></tr><tr><td style="font-weight:bold;vertical-align:top;">HTTP_SEC_FETCH_SITE</td><td style="vertical-align:top;">:</td><td><div>same-origin</div></td></tr><tr><td style="font-weight:bold;vertical-align:top;">HTTP_SEC_FETCH_USER</td><td style="vertical-align:top;">:</td><td><div>?1</div></td></tr><tr><td style="font-weight:bold;vertical-align:top;">HTTP_UPGRADE_INSECURE_REQUESTS</td><td style="vertical-align:top;">:</td><td><div>1</div></td></tr><tr><td style="font-weight:bold;vertical-align:top;">HTTP_USER_AGENT</td><td style="vertical-align:top;">:</td><td><div>Mozilla/5.0 (Linux; U; Android 5.1; en_us; ASUS_Z00VD Build/LMY47D) AppleWebKit/537.36 (KHTML, like Gecko) Version/4.0 Chrome/39.0.0.0 Mobile Safari/537.36</div></td></tr><tr><td style="font-weight:bold;vertical-align:top;">HTTP_X_FORWARDED_FOR</td><td style="vertical-align:top;">:</td><td><div>187.19.189.45</div></td></tr><tr><td style="font-weight:bold;vertical-align:top;">HTTP_X_REAL_IP</td><td style="vertical-align:top;">:</td><td><div>187.19.189.45</div></td></tr><tr><td style="font-weight:bold;vertical-align:top;">HTTP_X_REQUESTED_WITH</td><td style="vertical-align:top;">:</td><td><div>com.android.browser</div></td></tr><tr><td style="font-weight:bold;vertical-align:top;">PATH_INFO</td><td style="vertical-align:top;">:</td><td><div>/admin/default/edit_language/mmn/languages/pt-br</div></td></tr><tr><td style="font-weight:bold;vertical-align:top;">QUERY_STRING</td><td style="vertical-align:top;">:</td><td><div></div></td></tr><tr><td style="font-weight:bold;vertical-align:top;">REMOTE_ADDR</td><td style="vertical-align:top;">:</td><td><div>10.0.0.14</div></td></tr><tr><td style="font-weight:bold;vertical-align:top;">REMOTE_PORT</td><td style="vertical-align:top;">:</td><td><div>38352</div></td></tr><tr><td style="font-weight:bold;vertical-align:top;">REQUEST_METHOD</td><td style="vertical-align:top;">:</td><td><div>GET</div></td></tr><tr><td style="font-weight:bold;vertical-align:top;">REQUEST_URI</td><td style="vertical-align:top;">:</td><td><div>/admin/default/edit_language/mmn/languages/pt-br</div></td></tr><tr><td style="font-weight:bold;vertical-align:top;">SCRIPT_NAME</td><td style="vertical-align:top;">:</td><td><div></div></td></tr><tr><td style="font-weight:bold;vertical-align:top;">SERVER_NAME</td><td style="vertical-align:top;">:</td><td><div>rogoberto.pythonanywhere.com</div></td></tr><tr><td style="font-weight:bold;vertical-align:top;">SERVER_PORT</td><td style="vertical-align:top;">:</td><td><div>443</div></td></tr><tr><td style="font-weight:bold;vertical-align:top;">SERVER_PROTOCOL</td><td style="vertical-align:top;">:</td><td><div>HTTP/1.1</div></td></tr><tr><td style="font-weight:bold;vertical-align:top;">app_folders</td><td style="vertical-align:top;">:</td><td><div>set([&#x27;/home/rogoberto/web2py/applications/welcome/&#x27;, &#x27;/home/rogoberto/web2py/applications/Sist01/&#x27;, &#x27;/home/rogoberto/web2py/applications/mmn/&#x27;, &#x27;/home/rogoberto/web2py/applications/examples/&#x27;, &#x27;/home/rogoberto/web2py/applications/Sist02/&#x27;, &#x27;/home/rogoberto/web2py/applications/escola_curso/&#x27;, &#x27;/home/rogoberto/web2py/applications/admin/&#x27;, &#x27;/home/rogoberto/web2py/applications/Loja/&#x27;])</div></td></tr><tr><td style="font-weight:bold;vertical-align:top;">applications_parent</td><td style="vertical-align:top;">:</td><td><div>/home/rogoberto/web2py</div></td></tr><tr><td style="font-weight:bold;vertical-align:top;">content_length</td><td style="vertical-align:top;">:</td><td><div></div></td></tr><tr><td style="font-weight:bold;vertical-align:top;">content_type</td><td style="vertical-align:top;">:</td><td><div></div></td></tr><tr><td style="font-weight:bold;vertical-align:top;">db_sessions</td><td style="vertical-align:top;">:</td><td><div>set([])</div></td></tr><tr><td style="font-weight:bold;vertical-align:top;">debugging</td><td style="vertical-align:top;">:</td><td><div>True</div></td></tr><tr><td style="font-weight:bold;vertical-align:top;">document_root</td><td style="vertical-align:top;">:</td><td><div>/usr/local/openresty/nginx/html</div></td></tr><tr><td style="font-weight:bold;vertical-align:top;">gluon_parent</td><td style="vertical-align:top;">:</td><td><div>/home/rogoberto/web2py</div></td></tr><tr><td style="font-weight:bold;vertical-align:top;">http_accept</td><td style="vertical-align:top;">:</td><td><div>text/html,application/xhtml+xml,application/xml;q=0.9,image/webp,image/apng,*/*;q=0.8,application/signed-exchange;v=b3</div></td></tr><tr><td style="font-weight:bold;vertical-align:top;">http_accept_encoding</td><td style="vertical-align:top;">:</td><td><div>gzip, deflate</div></td></tr><tr><td style="font-weight:bold;vertical-align:top;">http_accept_language</td><td style="vertical-align:top;">:</td><td><div>pt-BR,pt;q=0.9,en-US;q=0.8,en;q=0.7</div></td></tr><tr><td style="font-weight:bold;vertical-align:top;">http_connection</td><td style="vertical-align:top;">:</td><td><div>close</div></td></tr><tr><td style="font-weight:bold;vertical-align:top;">http_cookie</td><td style="vertical-align:top;">:</td><td><div>session_id_sistema=187.19.189.45-6bcf7ff3-2ca0-4bb8-8342-06446b7679d6; _ga=GA1.2.2003628967.1570258136; session_id_exemplo=187.19.189.45-48145116-6584-42ba-8ba0-4a436f631a29; session_id_sist02=187.19.189.45-789c2852-8005-4113-bfbd-f13647951705; session_id_sist01=177.25.156.85-1a57a1e5-f041-4dfc-8ef4-4e31289e8b87; session_id_admin=187.19.189.45-6a6a4acd-0285-4632-9462-b689502d69a6; session_id_mmn=187.19.189.45-5604ad06-08b2-4d45-9ba7-cd991197ed69; session_id_welcome=187.19.189.45-b79001c6-c213-452f-af49-cf0b4fc66b27</div></td></tr><tr><td style="font-weight:bold;vertical-align:top;">http_host</td><td style="vertical-align:top;">:</td><td><div>rogoberto.pythonanywhere.com</div></td></tr><tr><td style="font-weight:bold;vertical-align:top;">http_referer</td><td style="vertical-align:top;">:</td><td><div>https://rogoberto.pythonanywhere.com/admin/default/design/mmn</div></td></tr><tr><td style="font-weight:bold;vertical-align:top;">http_sec_fetch_mode</td><td style="vertical-align:top;">:</td><td><div>navigate</div></td></tr><tr><td style="font-weight:bold;vertical-align:top;">http_sec_fetch_site</td><td style="vertical-align:top;">:</td><td><div>same-origin</div></td></tr><tr><td style="font-weight:bold;vertical-align:top;">http_sec_fetch_user</td><td style="vertical-align:top;">:</td><td><div>?1</div></td></tr><tr><td style="font-weight:bold;vertical-align:top;">http_upgrade_insecure_requests</td><td style="vertical-align:top;">:</td><td><div>1</div></td></tr><tr><td style="font-weight:bold;vertical-align:top;">http_user_agent</td><td style="vertical-align:top;">:</td><td><div>Mozilla/5.0 (Linux; U; Android 5.1; en_us; ASUS_Z00VD Build/LMY47D) AppleWebKit/537.36 (KHTML, like Gecko) Version/4.0 Chrome/39.0.0.0 Mobile Safari/537.36</div></td></tr><tr><td style="font-weight:bold;vertical-align:top;">http_x_forwarded_for</td><td style="vertical-align:top;">:</td><td><div>187.19.189.45</div></td></tr><tr><td style="font-weight:bold;vertical-align:top;">http_x_real_ip</td><td style="vertical-align:top;">:</td><td><div>187.19.189.45</div></td></tr><tr><td style="font-weight:bold;vertical-align:top;">http_x_requested_with</td><td style="vertical-align:top;">:</td><td><div>com.android.browser</div></td></tr><tr><td style="font-weight:bold;vertical-align:top;">https</td><td style="vertical-align:top;">:</td><td><div>on</div></td></tr><tr><td style="font-weight:bold;vertical-align:top;">is_jython</td><td style="vertical-align:top;">:</td><td><div>False</div></td></tr><tr><td style="font-weight:bold;vertical-align:top;">is_py2</td><td style="vertical-align:top;">:</td><td><div>True</div></td></tr><tr><td style="font-weight:bold;vertical-align:top;">is_pypy</td><td style="vertical-align:top;">:</td><td><div>False</div></td></tr><tr><td style="font-weight:bold;vertical-align:top;">is_source</td><td style="vertical-align:top;">:</td><td><div>True</div></td></tr><tr><td style="font-weight:bold;vertical-align:top;">local_hosts</td><td style="vertical-align:top;">:</td><td><div><table><tr><td><div>35.173.69.207</div></td></tr><tr><td><div>::ffff:127.0.0.1</div></td></tr><tr><td><div>::1</div></td></tr><tr><td><div>blue-liveweb9</div></td></tr><tr><td><div>rogoberto.pythonanywhere.com</div></td></tr><tr><td><div>127.0.0.1</div></td></tr><tr><td><div>localhost</div></td></tr></table></div></td></tr><tr><td style="font-weight:bold;vertical-align:top;">path_info</td><td style="vertical-align:top;">:</td><td><div>/admin/default/edit_language/mmn/languages/pt-br</div></td></tr><tr><td style="font-weight:bold;vertical-align:top;">query_string</td><td style="vertical-align:top;">:</td><td><div></div></td></tr><tr><td style="font-weight:bold;vertical-align:top;">remote_addr</td><td style="vertical-align:top;">:</td><td><div>10.0.0.14</div></td></tr><tr><td style="font-weight:bold;vertical-align:top;">remote_port</td><td style="vertical-align:top;">:</td><td><div>38352</div></td></tr><tr><td style="font-weight:bold;vertical-align:top;">request_method</td><td style="vertical-align:top;">:</td><td><div>GET</div></td></tr><tr><td style="font-weight:bold;vertical-align:top;">request_uri</td><td style="vertical-align:top;">:</td><td><div>/admin/default/edit_language/mmn/languages/pt-br</div></td></tr><tr><td style="font-weight:bold;vertical-align:top;">script_name</td><td style="vertical-align:top;">:</td><td><div></div></td></tr><tr><td style="font-weight:bold;vertical-align:top;">server_name</td><td style="vertical-align:top;">:</td><td><div>rogoberto.pythonanywhere.com</div></td></tr><tr><td style="font-weight:bold;vertical-align:top;">server_port</td><td style="vertical-align:top;">:</td><td><div>443</div></td></tr><tr><td style="font-weight:bold;vertical-align:top;">server_protocol</td><td style="vertical-align:top;">:</td><td><div>HTTP/1.1</div></td></tr><tr><td style="font-weight:bold;vertical-align:top;">uwsgi.node</td><td style="vertical-align:top;">:</td><td><div>blue-liveweb9</div></td></tr><tr><td style="font-weight:bold;vertical-align:top;">uwsgi.version</td><td style="vertical-align:top;">:</td><td><div>2.0.17.1</div></td></tr><tr><td style="font-weight:bold;vertical-align:top;">uwsgi_node</td><td style="vertical-align:top;">:</td><td><div>blue-liveweb9</div></td></tr><tr><td style="font-weight:bold;vertical-align:top;">uwsgi_version</td><td style="vertical-align:top;">:</td><td><div>2.0.17.1</div></td></tr><tr><td style="font-weight:bold;vertical-align:top;">web2py_path</td><td style="vertical-align:top;">:</td><td><div>/home/rogoberto/web2py</div></td></tr><tr><td style="font-weight:bold;vertical-align:top;">web2py_version</td><td style="vertical-align:top;">:</td><td><div>2.17.1-stable+timestamp.2018.08.06.01.02.56</div></td></tr><tr><td style="font-weight:bold;vertical-align:top;">wsgi.errors</td><td style="vertical-align:top;">:</td><td><div>&lt;uwsgi_file__bin_user_wsgi_wrapper.ErrorLogFile object at 0x7effc2ea3cd0&gt;</div></td></tr><tr><td style="font-weight:bold;vertical-align:top;">wsgi.file_wrapper</td><td style="vertical-align:top;">:</td><td><div>&lt;built-in function uwsgi_sendfile&gt;</div></td></tr><tr><td style="font-weight:bold;vertical-align:top;">wsgi.input</td><td style="vertical-align:top;">:</td><td><div>&lt;uwsgi._Input object at 0x7effc42b3f90&gt;</div></td></tr><tr><td style="font-weight:bold;vertical-align:top;">wsgi.multiprocess</td><td style="vertical-align:top;">:</td><td><div>False</div></td></tr><tr><td style="font-weight:bold;vertical-align:top;">wsgi.multithread</td><td style="vertical-align:top;">:</td><td><div>False</div></td></tr><tr><td style="font-weight:bold;vertical-align:top;">wsgi.run_once</td><td style="vertical-align:top;">:</td><td><div>False</div></td></tr><tr><td style="font-weight:bold;vertical-align:top;">wsgi.url_scheme</td><td style="vertical-align:top;">:</td><td><div>https</div></td></tr><tr><td style="font-weight:bold;vertical-align:top;">wsgi.version</td><td style="vertical-align:top;">:</td><td><div><table><tr><td><div>1</div></td></tr><tr><td><div>0</div></td></tr></table></div></td></tr><tr><td style="font-weight:bold;vertical-align:top;">wsgi_errors</td><td style="vertical-align:top;">:</td><td><div>&lt;uwsgi_file__bin_user_wsgi_wrapper.ErrorLogFile object at 0x7effc2ea3cd0&gt;</div></td></tr><tr><td style="font-weight:bold;vertical-align:top;">wsgi_file_wrapper</td><td style="vertical-align:top;">:</td><td><div>&lt;built-in function uwsgi_sendfile&gt;</div></td></tr><tr><td style="font-weight:bold;vertical-align:top;">wsgi_input</td><td style="vertical-align:top;">:</td><td><div>&lt;uwsgi._Input object at 0x7effc42b3f90&gt;</div></td></tr><tr><td style="font-weight:bold;vertical-align:top;">wsgi_multiprocess</td><td style="vertical-align:top;">:</td><td><div>False</div></td></tr><tr><td style="font-weight:bold;vertical-align:top;">wsgi_multithread</td><td style="vertical-align:top;">:</td><td><div>False</div></td></tr><tr><td style="font-weight:bold;vertical-align:top;">wsgi_run_once</td><td style="vertical-align:top;">:</td><td><div>False</div></td></tr><tr><td style="font-weight:bold;vertical-align:top;">wsgi_url_scheme</td><td style="vertical-align:top;">:</td><td><div>https</div></td></tr><tr><td style="font-weight:bold;vertical-align:top;">wsgi_version</td><td style="vertical-align:top;">:</td><td><div><table><tr><td><div>1</div></td></tr><tr><td><div>0</div></td></tr></table></div></td></tr></table></div></td></tr><tr><td style="font-weight:bold;vertical-align:top;">extension</td><td style="vertical-align:top;">:</td><td><div>html</div></td></tr><tr><td style="font-weight:bold;vertical-align:top;">folder</td><td style="vertical-align:top;">:</td><td><div>/home/rogoberto/web2py/applications/admin/</div></td></tr><tr><td style="font-weight:bold;vertical-align:top;">function</td><td style="vertical-align:top;">:</td><td><div>edit_language</div></td></tr><tr><td style="font-weight:bold;vertical-align:top;">global_settings</td><td style="vertical-align:top;">:</td><td><div><table><tr><td style="font-weight:bold;vertical-align:top;">app_folders</td><td style="vertical-align:top;">:</td><td><div>set([&#x27;/home/rogoberto/web2py/applications/welcome/&#x27;, &#x27;/home/rogoberto/web2py/applications/Sist01/&#x27;, &#x27;/home/rogoberto/web2py/applications/mmn/&#x27;, &#x27;/home/rogoberto/web2py/applications/examples/&#x27;, &#x27;/home/rogoberto/web2py/applications/Sist02/&#x27;, &#x27;/home/rogoberto/web2py/applications/escola_curso/&#x27;, &#x27;/home/rogoberto/web2py/applications/admin/&#x27;, &#x27;/home/rogoberto/web2py/applications/Loja/&#x27;])</div></td></tr><tr><td style="font-weight:bold;vertical-align:top;">applications_parent</td><td style="vertical-align:top;">:</td><td><div>/home/rogoberto/web2py</div></td></tr><tr><td style="font-weight:bold;vertical-align:top;">db_sessions</td><td style="vertical-align:top;">:</td><td><div>set([])</div></td></tr><tr><td style="font-weight:bold;vertical-align:top;">debugging</td><td style="vertical-align:top;">:</td><td><div>True</div></td></tr><tr><td style="font-weight:bold;vertical-align:top;">gluon_parent</td><td style="vertical-align:top;">:</td><td><div>/home/rogoberto/web2py</div></td></tr><tr><td style="font-weight:bold;vertical-align:top;">is_jython</td><td style="vertical-align:top;">:</td><td><div>False</div></td></tr><tr><td style="font-weight:bold;vertical-align:top;">is_py2</td><td style="vertical-align:top;">:</td><td><div>True</div></td></tr><tr><td style="font-weight:bold;vertical-align:top;">is_pypy</td><td style="vertical-align:top;">:</td><td><div>False</div></td></tr><tr><td style="font-weight:bold;vertical-align:top;">is_source</td><td style="vertical-align:top;">:</td><td><div>True</div></td></tr><tr><td style="font-weight:bold;vertical-align:top;">local_hosts</td><td style="vertical-align:top;">:</td><td><div><table><tr><td><div>35.173.69.207</div></td></tr><tr><td><div>::ffff:127.0.0.1</div></td></tr><tr><td><div>::1</div></td></tr><tr><td><div>blue-liveweb9</div></td></tr><tr><td><div>rogoberto.pythonanywhere.com</div></td></tr><tr><td><div>127.0.0.1</div></td></tr><tr><td><div>localhost</div></td></tr></table></div></td></tr><tr><td style="font-weight:bold;vertical-align:top;">web2py_version</td><td style="vertical-align:top;">:</td><td><div>2.17.1-stable+timestamp.2018.08.06.01.02.56</div></td></tr></table></div></td></tr><tr><td style="font-weight:bold;vertical-align:top;">is_https</td><td style="vertical-align:top;">:</td><td><div>True</div></td></tr><tr><td style="font-weight:bold;vertical-align:top;">is_local</td><td style="vertical-align:top;">:</td><td><div>False</div></td></tr><tr><td style="font-weight:bold;vertical-align:top;">is_restful</td><td style="vertical-align:top;">:</td><td><div>False</div></td></tr><tr><td style="font-weight:bold;vertical-align:top;">is_scheduler</td><td style="vertical-align:top;">:</td><td><div>False</div></td></tr><tr><td style="font-weight:bold;vertical-align:top;">is_shell</td><td style="vertical-align:top;">:</td><td><div>False</div></td></tr><tr><td style="font-weight:bold;vertical-align:top;">method</td><td style="vertical-align:top;">:</td><td><div>GET</div></td></tr><tr><td style="font-weight:bold;vertical-align:top;">now</td><td style="vertical-align:top;">:</td><td><div>datetime.datetime(2019, 10, 19, 5, 26, 5, 804420)</div></td></tr><tr><td style="font-weight:bold;vertical-align:top;">raw_args</td><td style="vertical-align:top;">:</td><td><div>mmn/languages/pt-br</div></td></tr><tr><td style="font-weight:bold;vertical-align:top;">raw_extension</td><td style="vertical-align:top;">:</td><td><div>None</div></td></tr><tr><td style="font-weight:bold;vertical-align:top;">url</td><td style="vertical-align:top;">:</td><td><div>/admin/default/edit_language/mmn/languages/pt-br</div></td></tr><tr><td style="font-weight:bold;vertical-align:top;">utcnow</td><td style="vertical-align:top;">:</td><td><div>datetime.datetime(2019, 10, 19, 5, 26, 5, 804446)</div></td></tr><tr><td style="font-weight:bold;vertical-align:top;">wsgi</td><td style="vertical-align:top;">:</td><td><div>&lt;gluon.main.LazyWSGI object at 0x7effbbb00d50&gt;</div></td></tr></table></div>'
tRp65
sS'frames'
p66
(lp67
(dp68
S'file'
p69
S'/home/rogoberto/web2py/gluon/restricted.py'
p70
sS'dump'
p71
(dp72
S'environment'
p73
S"{'A': <class 'gluon.html.A'>, 'ANY_OF': <class 'gluon.validators.ANY_OF'>, 'ASSIGNJS': <function ASSIGNJS>, 'A_button': <function A_button>, 'B': <class 'gluon.html.B'>, 'BEAUTIFY': <class 'gluon.html.BEAUTIFY'>, 'BODY': <class 'gluon.html.BODY'>, 'BR': <class 'gluon.html.BR'>, 'BUTTON': <class 'gluon.html.BUTTON'>, 'CAT': <class 'gluon.html.CAT'>, ...}"
p74
sS'ccode'
p75
S'<code object <module> at 0x7effc05596b0, file "/...plications/admin/controllers/default.py", line 3>'
p76
ssS'lnum'
p77
I219
sS'lines'
p78
(dp79
I214
S'    if environment is None:'
p80
sI215
S'        environment = {}'
p81
sI216
S"    environment['__file__'] = layer"
p82
sI217
S"    environment['__name__'] = '__restricted__'"
p83
sI218
S'    try:'
p84
sI219
S'        exec(ccode, environment)'
p85
sI220
S'    except HTTP:'
p86
sI221
S'        raise'
p87
sI222
S'    except RestrictedError:'
p88
sI223
S'        # do not encapsulate (obfuscate) the original RestrictedError'
p89
ssS'call'
p90
S'(ccode=<code object <module> at 0x7effc05596b0, file "/...plications/admin/controllers/default.py", line 3>, environment={\'A\': <class \'gluon.html.A\'>, \'ANY_OF\': <class \'gluon.validators.ANY_OF\'>, \'ASSIGNJS\': <function ASSIGNJS>, \'A_button\': <function A_button>, \'B\': <class \'gluon.html.B\'>, \'BEAUTIFY\': <class \'gluon.html.BEAUTIFY\'>, \'BODY\': <class \'gluon.html.BODY\'>, \'BR\': <class \'gluon.html.BR\'>, \'BUTTON\': <class \'gluon.html.BUTTON\'>, \'CAT\': <class \'gluon.html.CAT\'>, ...}, layer=\'/home/rogoberto/web2py/applications/admin/controllers/default.py\', scode=<code object <module> at 0x7effc05596b0, file "/...plications/admin/controllers/default.py", line 3>)'
p91
sS'func'
p92
S'restricted'
p93
sa(dp94
g69
S'/home/rogoberto/web2py/applications/admin/controllers/default.py'
p95
sg71
(dp96
sg77
I2005
sg78
(dp97
I1994
S'        else:'
p98
sI1995
S'            filename = "web2py.plugin.%s.w2p" % cleanpath(plugin)'
p99
sI1996
S'        if plugin_install(app, urlopen(source),'
p100
sI1997
S'                          request, filename):'
p101
sI1998
S"            session.flash = T('New plugin installed: %s', filename)"
p102
sI1999
S'        else:'
p103
sI2000
S'            session.flash = \\'
p104
sI2001
S'                T(\'unable to install plugin "%s"\', filename)'
p105
sI2002
S'        redirect(URL(f="plugins", args=[app, ]))'
p106
sI2003
S'    return dict(form=form, app=app, plugin=plugin, source=source)'
p107
ssg90
S'()'
p108
sg92
S'<module>'
p109
sa(dp110
g69
S'/home/rogoberto/web2py/gluon/globals.py'
p111
sg71
(dp112
S'self'
p113
S'undefined'
p114
sS'f'
S'<function edit_language>'
p115
ssg77
I421
sg78
(dp116
I416
S"        self.flash = ''            # used by the default view layout"
p117
sI417
S'        self.meta = Storage()      # used by web2py_ajax.html'
p118
sI418
S'        self.menu = []             # used by the default view layout'
p119
sI419
S'        self.files = []            # used by web2py_ajax.html'
p120
sI420
S'        self._vars = None'
p121
sI421
S'        self._caller = lambda f: f()'
p122
sI422
S'        self._view_environment = None'
p123
sI423
S'        self._custom_commit = None'
p124
sI424
S'        self._custom_rollback = None'
p125
sI425
S"        self.generic_patterns = ['*']"
p126
ssg90
S'(f=<function edit_language>)'
p127
sg92
S'<lambda>'
p128
sa(dp129
g69
S'/home/rogoberto/web2py/applications/admin/controllers/default.py'
p130
sg71
(dp131
S'global request'
p132
S"<Storage {'function': 'edit_language', 'cookies'...se, 'is_https': True, 'client': '187.19.189.45'}>"
p133
sS'filename'
p134
S"'mmn/languages/pt-br'"
p135
sS'r'
g114
sS'global apath'
p136
S'<function apath>'
p137
sS'global read_dict'
p138
S'<function read_dict>'
p139
sS'strings'
p140
g114
ssg77
I960
sg78
(dp141
I960
S'    strings = read_dict(apath(filename, r=request))'
p142
sI961
S''
sI962
S"    if '__corrupted__' in strings:"
p143
sI963
S"        form = SPAN(strings['__corrupted__'], _class='error')"
p144
sI964
S'        return dict(filename=filename, form=form)'
p145
sI955
S'def edit_language():'
p146
sI956
S'    """ Edit language file """'
p147
sI957
S'    app = get_app()'
p148
sI958
S"    filename = '/'.join(request.args)"
p149
sI959
S'    response.title = request.args[-1]'
p150
ssg90
S'()'
p151
sg92
S'edit_language'
p152
sa(dp153
g69
S'/home/rogoberto/web2py/gluon/languages.py'
p154
sg71
(dp155
S'global read_dict_aux'
p156
S'<function read_dict_aux>'
p157
sS'filename'
p158
S"'/home/rogoberto/web2py/applications/mmn/languages/pt-br'"
p159
ssg77
I184
sg78
(dp160
I179
S''
sI180
S'def read_dict(filename):'
p161
sI181
S'    """ Returns dictionary with translation messages'
p162
sI182
S'    """'
p163
sI183
S"    return getcfs('lang:' + filename, filename,"
p164
sI184
S'                  lambda: read_dict_aux(filename))'
p165
sI185
S''
sI186
S''
sI187
S'def read_possible_plural_rules():'
p166
sI188
S'    """'
p167
ssg90
S"(filename='/home/rogoberto/web2py/applications/mmn/languages/pt-br')"
p168
sg92
S'read_dict'
p169
sa(dp170
g69
S'/home/rogoberto/web2py/gluon/cfs.py'
p171
sg71
(dp172
S'filter'
p173
S'<function <lambda>>'
p174
sS'builtincallable'
p175
S'<built-in function callable>'
p176
ssg77
I41
sg78
(dp177
I36
S'    This is used on Google App Engine since pyc files cannot be saved.'
p178
sI37
S'    """'
p179
sI38
S'    try:'
p180
sI39
S'        t = stat(filename).st_mtime'
p181
sI40
S'    except OSError:'
p182
sI41
S"        return filter() if callable(filter) else ''"
p183
sI42
S'    cfs_lock.acquire()'
p184
sI43
S'    item = cfs.get(key, None)'
p185
sI44
S'    cfs_lock.release()'
p186
sI45
S'    if item and item[0] == t:'
p187
ssg90
S"(key='lang:/home/rogoberto/web2py/applications/mmn/languages/pt-br', filename='/home/rogoberto/web2py/applications/mmn/languages/pt-br', filter=<function <lambda>>)"
p188
sg92
S'getcfs'
p189
sa(dp190
g69
S'/home/rogoberto/web2py/gluon/languages.py'
p191
sg71
(dp192
S'global read_dict_aux'
p193
S'<function read_dict_aux>'
p194
sS'filename'
p195
S"'/home/rogoberto/web2py/applications/mmn/languages/pt-br'"
p196
ssg77
I184
sg78
(dp197
I179
S''
sI180
S'def read_dict(filename):'
p198
sI181
S'    """ Returns dictionary with translation messages'
p199
sI182
S'    """'
p200
sI183
S"    return getcfs('lang:' + filename, filename,"
p201
sI184
S'                  lambda: read_dict_aux(filename))'
p202
sI185
S''
sI186
S''
sI187
S'def read_possible_plural_rules():'
p203
sI188
S'    """'
p204
ssg90
S'()'
p205
sg92
g128
sa(dp206
g69
S'/home/rogoberto/web2py/gluon/languages.py'
p207
sg71
(dp208
S'global read_locked'
p209
S'<function read_locked>'
p210
sS'filename'
p211
S"'/home/rogoberto/web2py/applications/mmn/languages/pt-br'"
p212
sS').replace'
p213
S'<built-in method replace of str object>'
p214
sS'lang_text'
p215
g114
ssg77
I169
sg78
(dp216
I164
S'    finally:'
p217
sI165
S'        lock.release()'
p218
sI166
S''
sI167
S''
sI168
S'def read_dict_aux(filename):'
p219
sI169
S"    lang_text = read_locked(filename).replace(b'\\r\\n', b'\\n')"
p220
sI170
S'    clear_cache(filename)'
p221
sI171
S'    try:'
p222
sI172
S'        return safe_eval(to_native(lang_text)) or {}'
p223
sI173
S'    except Exception:'
p224
ssg90
S"(filename='/home/rogoberto/web2py/applications/mmn/languages/pt-br')"
p225
sg92
S'read_dict_aux'
p226
sa(dp227
g69
S'/home/rogoberto/web2py/gluon/packages/dal/pydal/contrib/portalocker.py'
p228
sg71
(dp229
S'fp'
p230
g114
sS'global LockedFile'
p231
S"<class 'pydal.contrib.portalocker.LockedFile'>"
p232
sS'filename'
p233
S"'/home/rogoberto/web2py/applications/mmn/languages/pt-br'"
p234
ssg77
I218
sg78
(dp235
I213
S'        if self.file is not None:'
p236
sI214
S'            self.close()'
p237
sI215
S''
sI216
S''
sI217
S'def read_locked(filename):'
p238
sI218
S"    fp = LockedFile(filename, 'rb')"
p239
sI219
S'    data = fp.read()'
p240
sI220
S'    fp.close()'
p241
sI221
S'    return data'
p242
sI222
S''
ssg90
S"(filename='/home/rogoberto/web2py/applications/mmn/languages/pt-br')"
p243
sg92
S'read_locked'
p244
sa(dp245
g69
S'/home/rogoberto/web2py/gluon/packages/dal/pydal/contrib/portalocker.py'
p246
sg71
(dp247
S'self'
p248
S'<pydal.contrib.portalocker.LockedFile object>'
p249
sS'filename'
p250
S"'/home/rogoberto/web2py/applications/mmn/languages/pt-br'"
p251
sS'global open_file'
p252
S'<function open_file>'
p253
sS'mode'
p254
S"'rb'"
p255
sS'self.file'
p256
S'None'
p257
ssg77
I182
sg78
(dp258
I177
S"    def __init__(self, filename, mode='rb'):"
p259
sI178
S'        self.filename = filename'
p260
sI179
S'        self.mode = mode'
p261
sI180
S'        self.file = None'
p262
sI181
S"        if 'r' in mode:"
p263
sI182
S'            self.file = open_file(filename, mode)'
p264
sI183
S'            lock(self.file, LOCK_SH)'
p265
sI184
S"        elif 'w' in mode or 'a' in mode:"
p266
sI185
S"            self.file = open_file(filename, mode.replace('w', 'a'))"
p267
sI186
S'            lock(self.file, LOCK_EX)'
p268
ssg90
S"(self=<pydal.contrib.portalocker.LockedFile object>, filename='/home/rogoberto/web2py/applications/mmn/languages/pt-br', mode='rb')"
p269
sg92
g24
sa(dp270
g69
S'/home/rogoberto/web2py/gluon/packages/dal/pydal/contrib/portalocker.py'
p271
sg71
(dp272
S'builtinopen'
p273
S'<built-in function open>'
p274
sS'filename'
p275
S"'/home/rogoberto/web2py/applications/mmn/languages/pt-br'"
p276
sS'mode'
p277
S"'rb'"
p278
sS'f'
g114
ssg77
I170
sg78
(dp279
I165
S'        pass'
p280
sI166
S''
sI167
S''
sI168
S'def open_file(filename, mode):'
p281
sI169
S"    if PY2 or 'b' in mode:"
p282
sI170
S'        f = open(filename, mode)'
p283
sI171
S'    else:'
p284
sI172
S"        f = open(filename, mode, encoding='utf8')"
p285
sI173
S'    return f'
p286
sI174
S''
ssg90
S"(filename='/home/rogoberto/web2py/applications/mmn/languages/pt-br', mode='rb')"
p287
sg92
S'open_file'
p288
sasS'pyver'
p289
S'Python 2.7.12: /usr/local/bin/uwsgi (prefix: /usr)'
p290
sS'session'
p291
g64
(S's\x92\x04\x00\x00<div><table><tr><td style="font-weight:bold;vertical-align:top;">authorized</td><td style="vertical-align:top;">:</td><td><div>True</div></td></tr><tr><td style="font-weight:bold;vertical-align:top;">check_version</td><td style="vertical-align:top;">:</td><td><div>True</div></td></tr><tr><td style="font-weight:bold;vertical-align:top;">flash</td><td style="vertical-align:top;">:</td><td><div>None</div></td></tr><tr><td style="font-weight:bold;vertical-align:top;">hmac_key</td><td style="vertical-align:top;">:</td><td><div>41d364ab-ce46-4fbe-ae86-04302cd6dc0a</div></td></tr><tr><td style="font-weight:bold;vertical-align:top;">is_mobile</td><td style="vertical-align:top;">:</td><td><div>true</div></td></tr><tr><td style="font-weight:bold;vertical-align:top;">last_time</td><td style="vertical-align:top;">:</td><td><div>1571462765.813227</div></td></tr><tr><td style="font-weight:bold;vertical-align:top;">pam_user</td><td style="vertical-align:top;">:</td><td><div>None</div></td></tr><tr><td style="font-weight:bold;vertical-align:top;">token</td><td style="vertical-align:top;">:</td><td><div>16d23555-2ae4-4471-8bb1-d39867b575fb</div></td></tr></table></div>'
tRp292
sS'etype'
p293
S"<type 'exceptions.IOError'>"
p294
sS'date'
p295
S'Sat Oct 19 05:26:05 2019'
p296
sS'response'
p297
g64
(S'sd\x1b\x00\x00<div><table><tr><td style="font-weight:bold;vertical-align:top;">body</td><td style="vertical-align:top;">:</td><td><div>&lt;cStringIO.StringO object at 0x7effbbb0ad88&gt;</div></td></tr><tr><td style="font-weight:bold;vertical-align:top;">cookies</td><td style="vertical-align:top;">:</td><td><div><table><tr><td style="font-weight:bold;vertical-align:top;">session_id_admin</td><td style="vertical-align:top;">:</td><td><div>187.19.189.45-6a6a4acd-0285-4632-9462-b689502d69a6<table><tr><td style="font-weight:bold;vertical-align:top;">comment</td><td style="vertical-align:top;">:</td><td><div></div></td></tr><tr><td style="font-weight:bold;vertical-align:top;">domain</td><td style="vertical-align:top;">:</td><td><div></div></td></tr><tr><td style="font-weight:bold;vertical-align:top;">expires</td><td style="vertical-align:top;">:</td><td><div></div></td></tr><tr><td style="font-weight:bold;vertical-align:top;">httponly</td><td style="vertical-align:top;">:</td><td><div></div></td></tr><tr><td style="font-weight:bold;vertical-align:top;">max-age</td><td style="vertical-align:top;">:</td><td><div></div></td></tr><tr><td style="font-weight:bold;vertical-align:top;">path</td><td style="vertical-align:top;">:</td><td><div>/</div></td></tr><tr><td style="font-weight:bold;vertical-align:top;">secure</td><td style="vertical-align:top;">:</td><td><div></div></td></tr><tr><td style="font-weight:bold;vertical-align:top;">version</td><td style="vertical-align:top;">:</td><td><div></div></td></tr></table></div></td></tr></table></div></td></tr><tr><td style="font-weight:bold;vertical-align:top;">delimiters</td><td style="vertical-align:top;">:</td><td><div><table><tr><td><div>{{</div></td></tr><tr><td><div>}}</div></td></tr></table></div></td></tr><tr><td style="font-weight:bold;vertical-align:top;">files</td><td style="vertical-align:top;">:</td><td><div><table><tr><td><div>/admin/static/_2.17.1/plugin_multiselect/jquery.multi-select.js</div></td></tr><tr><td><div>/admin/static/_2.17.1/plugin_multiselect/multi-select.css</div></td></tr><tr><td><div>/admin/static/_2.17.1/plugin_multiselect/start.js</div></td></tr><tr><td><div>/admin/static/_2.17.1/plugin_statebutton/js/bootstrap-switch.js</div></td></tr><tr><td><div>/admin/static/_2.17.1/plugin_statebutton/css/bootstrap-switch.css</div></td></tr></table></div></td></tr><tr><td style="font-weight:bold;vertical-align:top;">flash</td><td style="vertical-align:top;">:</td><td><div></div></td></tr><tr><td style="font-weight:bold;vertical-align:top;">form_label_separator</td><td style="vertical-align:top;">:</td><td><div>: </div></td></tr><tr><td style="font-weight:bold;vertical-align:top;">formstyle</td><td style="vertical-align:top;">:</td><td><div>table3cols</div></td></tr><tr><td style="font-weight:bold;vertical-align:top;">generic_patterns</td><td style="vertical-align:top;">:</td><td><div><table><tr><td><div>*</div></td></tr></table></div></td></tr><tr><td style="font-weight:bold;vertical-align:top;">headers</td><td style="vertical-align:top;">:</td><td><div><table><tr><td style="font-weight:bold;vertical-align:top;">X-Powered-By</td><td style="vertical-align:top;">:</td><td><div>web2py</div></td></tr></table></div></td></tr><tr><td style="font-weight:bold;vertical-align:top;">menu</td><td style="vertical-align:top;">:</td><td><div><table></table></div></td></tr><tr><td style="font-weight:bold;vertical-align:top;">meta</td><td style="vertical-align:top;">:</td><td><div><table></table></div></td></tr><tr><td style="font-weight:bold;vertical-align:top;">models_to_run</td><td style="vertical-align:top;">:</td><td><div><table><tr><td><div>^\\w+\\.py$</div></td></tr><tr><td><div>^default/\\w+\\.py$</div></td></tr><tr><td><div>^default/edit_language/\\w+\\.py$</div></td></tr></table></div></td></tr><tr><td style="font-weight:bold;vertical-align:top;">postprocessing</td><td style="vertical-align:top;">:</td><td><div><table></table></div></td></tr><tr><td style="font-weight:bold;vertical-align:top;">session_client</td><td style="vertical-align:top;">:</td><td><div>187.19.189.45</div></td></tr><tr><td style="font-weight:bold;vertical-align:top;">session_cookie_compression_level</td><td style="vertical-align:top;">:</td><td><div>None</div></td></tr><tr><td style="font-weight:bold;vertical-align:top;">session_cookie_expires</td><td style="vertical-align:top;">:</td><td><div>None</div></td></tr><tr><td style="font-weight:bold;vertical-align:top;">session_data_name</td><td style="vertical-align:top;">:</td><td><div>session_data_admin</div></td></tr><tr><td style="font-weight:bold;vertical-align:top;">session_file</td><td style="vertical-align:top;">:</td><td><div>&lt;open file &#x27;/home/rogoberto/web2py/applications/admin/sessions/122/1f8/187.19.189.45-6a6a4acd-0285-4632-9462-b689502d69a6&#x27;, mode &#x27;rb+&#x27; at 0x7effbb6de8a0&gt;</div></td></tr><tr><td style="font-weight:bold;vertical-align:top;">session_filename</td><td style="vertical-align:top;">:</td><td><div>/home/rogoberto/web2py/applications/admin/sessions/187.19.189.45-6a6a4acd-0285-4632-9462-b689502d69a6</div></td></tr><tr><td style="font-weight:bold;vertical-align:top;">session_hash</td><td style="vertical-align:top;">:</td><td><div>61dfc446bbab310f7cc1ed9284c9cfaa</div></td></tr><tr><td style="font-weight:bold;vertical-align:top;">session_id</td><td style="vertical-align:top;">:</td><td><div>187.19.189.45-6a6a4acd-0285-4632-9462-b689502d69a6</div></td></tr><tr><td style="font-weight:bold;vertical-align:top;">session_id_name</td><td style="vertical-align:top;">:</td><td><div>session_id_admin</div></td></tr><tr><td style="font-weight:bold;vertical-align:top;">session_locked</td><td style="vertical-align:top;">:</td><td><div>True</div></td></tr><tr><td style="font-weight:bold;vertical-align:top;">session_masterapp</td><td style="vertical-align:top;">:</td><td><div>admin</div></td></tr><tr><td style="font-weight:bold;vertical-align:top;">session_new</td><td style="vertical-align:top;">:</td><td><div>False</div></td></tr><tr><td style="font-weight:bold;vertical-align:top;">session_storage_type</td><td style="vertical-align:top;">:</td><td><div>file</div></td></tr><tr><td style="font-weight:bold;vertical-align:top;">static_version</td><td style="vertical-align:top;">:</td><td><div>2.17.1</div></td></tr><tr><td style="font-weight:bold;vertical-align:top;">static_version_urls</td><td style="vertical-align:top;">:</td><td><div>True</div></td></tr><tr><td style="font-weight:bold;vertical-align:top;">status</td><td style="vertical-align:top;">:</td><td><div>200</div></td></tr><tr><td style="font-weight:bold;vertical-align:top;">subtitle</td><td style="vertical-align:top;">:</td><td><div>admin</div></td></tr><tr><td style="font-weight:bold;vertical-align:top;">title</td><td style="vertical-align:top;">:</td><td><div>pt-br</div></td></tr><tr><td style="font-weight:bold;vertical-align:top;">view</td><td style="vertical-align:top;">:</td><td><div>default.mobile/edit_language.html</div></td></tr></table></div>'
tRp298
sS'locals'
p299
(dp300
S'mode'
p301
S"'rb'"
p302
sg37
S"'/home/rogoberto/web2py/applications/mmn/languages/pt-br'"
p303
sssS'traceback'
p304
S'Traceback (most recent call last):\n  File "/home/rogoberto/web2py/gluon/restricted.py", line 219, in restricted\n    exec(ccode, environment)\n  File "/home/rogoberto/web2py/applications/admin/controllers/default.py", line 2005, in <module>\n  File "/home/rogoberto/web2py/gluon/globals.py", line 421, in <lambda>\n    self._caller = lambda f: f()\n  File "/home/rogoberto/web2py/applications/admin/controllers/default.py", line 960, in edit_language\n    strings = read_dict(apath(filename, r=request))\n  File "/home/rogoberto/web2py/gluon/languages.py", line 184, in read_dict\n    lambda: read_dict_aux(filename))\n  File "/home/rogoberto/web2py/gluon/cfs.py", line 41, in getcfs\n    return filter() if callable(filter) else \'\'\n  File "/home/rogoberto/web2py/gluon/languages.py", line 184, in <lambda>\n    lambda: read_dict_aux(filename))\n  File "/home/rogoberto/web2py/gluon/languages.py", line 169, in read_dict_aux\n    lang_text = read_locked(filename).replace(b\'\\r\\n\', b\'\\n\')\n  File "/home/rogoberto/web2py/gluon/packages/dal/pydal/contrib/portalocker.py", line 218, in read_locked\n    fp = LockedFile(filename, \'rb\')\n  File "/home/rogoberto/web2py/gluon/packages/dal/pydal/contrib/portalocker.py", line 182, in __init__\n    self.file = open_file(filename, mode)\n  File "/home/rogoberto/web2py/gluon/packages/dal/pydal/contrib/portalocker.py", line 170, in open_file\n    f = open(filename, mode)\nIOError: [Errno 2] No such file or directory: \'/home/rogoberto/web2py/applications/mmn/languages/pt-br\'\n'
p305
s.